; ModuleID = '23/757.c'
source_filename = "23/757.c"
target datalayout = "e-m:e-p270:32:32-p271:32:32-p272:64:64-i64:64-f80:128-n8:16:32:64-S128"
target triple = "x86_64-pc-linux-gnu"

@.str = private unnamed_addr constant [3 x i8] c"%c\00", align 1
@.str.1 = private unnamed_addr constant [2 x i8] c" \00", align 1

; Function Attrs: noinline nounwind uwtable
define dso_local i32 @turn(i8* %0) #0 {
  %2 = alloca i32, align 4
  %3 = alloca i8*, align 8
  %4 = alloca i32, align 4
  %5 = alloca i32, align 4
  %6 = alloca i32, align 4
  %7 = alloca i32, align 4
  %8 = alloca i8*, align 8
  %9 = alloca i8*, align 8
  store i8* %0, i8** %3, align 8
  store i32 0, i32* %4, align 4
  store i32 0, i32* %7, align 4
  %10 = load i8*, i8** %3, align 8
  store i8* %10, i8** %8, align 8
  br label %11

11:                                               ; preds = %19, %1
  %12 = load i8*, i8** %8, align 8
  %13 = load i8, i8* %12, align 1
  %14 = sext i8 %13 to i32
  %15 = icmp ne i32 %14, 0
  br i1 %15, label %16, label %22

16:                                               ; preds = %11
  %17 = load i32, i32* %7, align 4
  %18 = add nsw i32 %17, 1
  store i32 %18, i32* %7, align 4
  br label %19

19:                                               ; preds = %16
  %20 = load i8*, i8** %8, align 8
  %21 = getelementptr inbounds i8, i8* %20, i32 1
  store i8* %21, i8** %8, align 8
  br label %11

22:                                               ; preds = %11
  %23 = load i8*, i8** %3, align 8
  %24 = load i32, i32* %7, align 4
  %25 = sext i32 %24 to i64
  %26 = getelementptr inbounds i8, i8* %23, i64 %25
  %27 = getelementptr inbounds i8, i8* %26, i64 -1
  store i8* %27, i8** %8, align 8
  br label %28

28:                                               ; preds = %83, %22
  %29 = load i8*, i8** %8, align 8
  %30 = load i8*, i8** %3, align 8
  %31 = icmp uge i8* %29, %30
  br i1 %31, label %32, label %86

32:                                               ; preds = %28
  %33 = load i8*, i8** %8, align 8
  %34 = load i8, i8* %33, align 1
  %35 = sext i8 %34 to i32
  %36 = icmp ne i32 %35, 32
  br i1 %36, label %37, label %40

37:                                               ; preds = %32
  %38 = load i32, i32* %4, align 4
  %39 = add nsw i32 %38, 1
  store i32 %39, i32* %4, align 4
  br label %60

40:                                               ; preds = %32
  %41 = load i8*, i8** %8, align 8
  %42 = getelementptr inbounds i8, i8* %41, i64 1
  store i8* %42, i8** %9, align 8
  br label %43

43:                                               ; preds = %55, %40
  %44 = load i8*, i8** %9, align 8
  %45 = load i8*, i8** %8, align 8
  %46 = load i32, i32* %4, align 4
  %47 = sext i32 %46 to i64
  %48 = getelementptr inbounds i8, i8* %45, i64 %47
  %49 = icmp ule i8* %44, %48
  br i1 %49, label %50, label %58

50:                                               ; preds = %43
  %51 = load i8*, i8** %9, align 8
  %52 = load i8, i8* %51, align 1
  %53 = sext i8 %52 to i32
  %54 = call i32 (i8*, ...) @printf(i8* getelementptr inbounds ([3 x i8], [3 x i8]* @.str, i64 0, i64 0), i32 %53)
  br label %55

55:                                               ; preds = %50
  %56 = load i8*, i8** %9, align 8
  %57 = getelementptr inbounds i8, i8* %56, i32 1
  store i8* %57, i8** %9, align 8
  br label %43

58:                                               ; preds = %43
  %59 = call i32 (i8*, ...) @printf(i8* getelementptr inbounds ([2 x i8], [2 x i8]* @.str.1, i64 0, i64 0))
  store i32 0, i32* %4, align 4
  br label %60

60:                                               ; preds = %58, %37
  %61 = load i8*, i8** %8, align 8
  %62 = load i8*, i8** %3, align 8
  %63 = icmp eq i8* %61, %62
  br i1 %63, label %64, label %82

64:                                               ; preds = %60
  %65 = load i8*, i8** %8, align 8
  store i8* %65, i8** %9, align 8
  br label %66

66:                                               ; preds = %78, %64
  %67 = load i8*, i8** %9, align 8
  %68 = load i8*, i8** %8, align 8
  %69 = load i32, i32* %4, align 4
  %70 = sext i32 %69 to i64
  %71 = getelementptr inbounds i8, i8* %68, i64 %70
  %72 = icmp ult i8* %67, %71
  br i1 %72, label %73, label %81

73:                                               ; preds = %66
  %74 = load i8*, i8** %9, align 8
  %75 = load i8, i8* %74, align 1
  %76 = sext i8 %75 to i32
  %77 = call i32 (i8*, ...) @printf(i8* getelementptr inbounds ([3 x i8], [3 x i8]* @.str, i64 0, i64 0), i32 %76)
  br label %78

78:                                               ; preds = %73
  %79 = load i8*, i8** %9, align 8
  %80 = getelementptr inbounds i8, i8* %79, i32 1
  store i8* %80, i8** %9, align 8
  br label %66

81:                                               ; preds = %66
  br label %82

82:                                               ; preds = %81, %60
  br label %83

83:                                               ; preds = %82
  %84 = load i8*, i8** %8, align 8
  %85 = getelementptr inbounds i8, i8* %84, i32 -1
  store i8* %85, i8** %8, align 8
  br label %28

86:                                               ; preds = %28
  %87 = load i32, i32* %2, align 4
  ret i32 %87
}

declare dso_local i32 @printf(i8*, ...) #1

; Function Attrs: noinline nounwind uwtable
define dso_local i32 @main() #0 {
  %1 = alloca [100 x i8], align 16
  %2 = getelementptr inbounds [100 x i8], [100 x i8]* %1, i64 0, i64 0
  %3 = call i32 (i8*, ...) bitcast (i32 (...)* @gets to i32 (i8*, ...)*)(i8* %2)
  %4 = getelementptr inbounds [100 x i8], [100 x i8]* %1, i64 0, i64 0
  %5 = call i32 @turn(i8* %4)
  ret i32 0
}

declare dso_local i32 @gets(...) #1


!llvm.module.flags = !{!0}
!llvm.ident = !{!1}

!0 = !{i32 1, !"wchar_size", i32 4}
!1 = !{!"clang version 10.0.0-4ubuntu1 "}
